ccopy_reg
_reconstructor
p0
(cconfig
Config
p1
c__builtin__
object
p2
Ntp3
Rp4
(dp5
S'global_step'
p6
cnumpy.core.multiarray
scalar
p7
(cnumpy
dtype
p8
(S'i4'
p9
I0
I1
tp10
Rp11
(I3
S'<'
p12
NNNI-1
I-1
I0
tp13
bS'\xd7\xd6\x00\x00'
p14
tp15
Rp16
sS'learning_rate_decay_factor'
p17
F0.7
sS'num_lstm_units'
p18
I512
sS'test_result_dir'
p19
S'./test/results/'
p20
sS'fc_kernel_initializer_scale'
p21
F0.08
sS'num_layers'
p22
I3
sS'save_eval_result_as_image'
p23
I00
sS'eval_caption_file'
p24
S'./val/captions_val2014.json'
p25
sS'fc_activity_regularizer_scale'
p26
F0.0
sS'eval_result_dir'
p27
S'./val/results/'
p28
sS'num_epochs'
p29
I1
sS'fc_drop_rate'
p30
F0.8
sS'lstm_drop_rate'
p31
F0.3
sS'decay'
p32
F0.9
sS'temp_data_file'
p33
S'./train/data.npy'
p34
sS'num_steps_per_decay'
p35
I1000
sS'dim_embedding'
p36
I512
sS'train_cnn'
p37
I01
sS'dim_attend_layer'
p38
I512
sS'beta2'
p39
F0.999
sS'beta1'
p40
F0.9
sS'summary_dir'
p41
S'./summary/'
p42
sS'cnn'
p43
S'vgg16'
p44
sS'dim_decode_layer'
p45
I256
sS'momentum'
p46
F0.0
sS'num_decode_layers'
p47
I2
sS'use_nesterov'
p48
I01
sS'eval_result_file'
p49
S'./val/results.json'
p50
sS'optimizer'
p51
S'Momentum'
p52
sS'train_image_dir'
p53
S'./train/images/'
p54
sS'centered'
p55
I01
sS'test_result_file'
p56
S'./test/results.csv'
p57
sS'epsilon'
p58
F1e-06
sS'conv_activity_regularizer_scale'
p59
F0.0
sS'attention_loss_factor'
p60
F0.01
sS'batch_size'
p61
I64
sS'phase'
p62
S'train'
p63
sS'fc_kernel_regularizer_scale'
p64
F0.0001
sS'dim_initalize_layer'
p65
I512
sS'max_caption_length'
p66
I30
sS'temp_annotation_file'
p67
S'./train/anns.csv'
p68
sS'test_image_dir'
p69
S'./test/images/'
p70
sS'train_caption_file'
p71
S'./train/captions_train2014.json'
p72
sS'num_initalize_layers'
p73
I1
sS'clip_gradients'
p74
F5.0
sS'conv_kernel_regularizer_scale'
p75
F0.0001
sS'initial_learning_rate'
p76
F0.001
sS'num_attend_layers'
p77
I2
sS'save_dir'
p78
S'./models/'
p79
sS'eval_image_dir'
p80
S'./val/images/'
p81
sS'save_period'
p82
I1000
sb.